target datalayout = "e-m:e-p270:32:32-p271:32:32-p272:64:64-i64:64-i128:128-f80:128-n8:16:32:64-S128"
target triple = "x86_64-pc-linux-gnu"

%"struct.duckdb_miniz::tdefl_output_buffer" = type { i64, i64, ptr, i32 }

; Function Attrs: mustprogress nounwind uwtable
define internal noundef i32 @_ZN12duckdb_minizL26tdefl_output_buffer_putterEPKviPv(ptr noundef %0, i32 noundef %1, ptr noundef %2) #0 {
  %4 = alloca i32, align 4
  %5 = alloca ptr, align 8
  %6 = alloca i32, align 4
  %7 = alloca ptr, align 8
  %8 = alloca ptr, align 8
  %9 = alloca i64, align 8
  %10 = alloca i64, align 8
  %11 = alloca ptr, align 8
  %12 = alloca i32, align 4
  store ptr %0, ptr %5, align 8, !tbaa !19
  store i32 %1, ptr %6, align 4, !tbaa !10
  store ptr %2, ptr %7, align 8, !tbaa !19
  call void @llvm.lifetime.start.p0(i64 8, ptr %8) #11
  %13 = load ptr, ptr %7, align 8, !tbaa !19
  store ptr %13, ptr %8, align 8, !tbaa !19
  call void @llvm.lifetime.start.p0(i64 8, ptr %9) #11
  %14 = load ptr, ptr %8, align 8, !tbaa !19
  %15 = getelementptr inbounds nuw %"struct.duckdb_miniz::tdefl_output_buffer", ptr %14, i32 0, i32 0
  %16 = load i64, ptr %15, align 8, !tbaa !217
  %17 = load i32, ptr %6, align 4, !tbaa !10
  %18 = sext i32 %17 to i64
  %19 = add i64 %16, %18
  store i64 %19, ptr %9, align 8, !tbaa !3
  %20 = load i64, ptr %9, align 8, !tbaa !3
  %21 = load ptr, ptr %8, align 8, !tbaa !19
  %22 = getelementptr inbounds nuw %"struct.duckdb_miniz::tdefl_output_buffer", ptr %21, i32 0, i32 1
  %23 = load i64, ptr %22, align 8, !tbaa !219
  %24 = icmp ugt i64 %20, %23
  br i1 %24, label %25, label %68

25:                                               ; preds = %3
  call void @llvm.lifetime.start.p0(i64 8, ptr %10) #11
  %26 = load ptr, ptr %8, align 8, !tbaa !19
  %27 = getelementptr inbounds nuw %"struct.duckdb_miniz::tdefl_output_buffer", ptr %26, i32 0, i32 1
  %28 = load i64, ptr %27, align 8, !tbaa !219
  store i64 %28, ptr %10, align 8, !tbaa !3
  call void @llvm.lifetime.start.p0(i64 8, ptr %11) #11
  %29 = load ptr, ptr %8, align 8, !tbaa !19
  %30 = getelementptr inbounds nuw %"struct.duckdb_miniz::tdefl_output_buffer", ptr %29, i32 0, i32 3
  %31 = load i32, ptr %30, align 8, !tbaa !215
  %32 = icmp ne i32 %31, 0
  br i1 %32, label %34, label %33

33:                                               ; preds = %25
  store i32 0, ptr %4, align 4
  store i32 1, ptr %12, align 4
  br label %65

34:                                               ; preds = %25
  br label %35

35:                                               ; preds = %45, %34
  %36 = load i64, ptr %10, align 8, !tbaa !3
  %37 = shl i64 %36, 1
  %38 = icmp ugt i64 128, %37
  br i1 %38, label %39, label %40

39:                                               ; preds = %35
  br label %43

40:                                               ; preds = %35
  %41 = load i64, ptr %10, align 8, !tbaa !3
  %42 = shl i64 %41, 1
  br label %43

43:                                               ; preds = %40, %39
  %44 = phi i64 [ 128, %39 ], [ %42, %40 ]
  store i64 %44, ptr %10, align 8, !tbaa !3
  br label %45

45:                                               ; preds = %43
  %46 = load i64, ptr %9, align 8, !tbaa !3
  %47 = load i64, ptr %10, align 8, !tbaa !3
  %48 = icmp ugt i64 %46, %47
  br i1 %48, label %35, label %49, !llvm.loop !220

49:                                               ; preds = %45
  %50 = load ptr, ptr %8, align 8, !tbaa !19
  %51 = getelementptr inbounds nuw %"struct.duckdb_miniz::tdefl_output_buffer", ptr %50, i32 0, i32 2
  %52 = load ptr, ptr %51, align 8, !tbaa !218
  %53 = load i64, ptr %10, align 8, !tbaa !3
  %54 = call ptr @realloc(ptr noundef %52, i64 noundef %53) #13
  store ptr %54, ptr %11, align 8, !tbaa !7
  %55 = load ptr, ptr %11, align 8, !tbaa !7
  %56 = icmp ne ptr %55, null
  br i1 %56, label %58, label %57

57:                                               ; preds = %49
  store i32 0, ptr %4, align 4
  store i32 1, ptr %12, align 4
  br label %65

58:                                               ; preds = %49
  %59 = load ptr, ptr %11, align 8, !tbaa !7
  %60 = load ptr, ptr %8, align 8, !tbaa !19
  %61 = getelementptr inbounds nuw %"struct.duckdb_miniz::tdefl_output_buffer", ptr %60, i32 0, i32 2
  store ptr %59, ptr %61, align 8, !tbaa !218
  %62 = load i64, ptr %10, align 8, !tbaa !3
  %63 = load ptr, ptr %8, align 8, !tbaa !19
  %64 = getelementptr inbounds nuw %"struct.duckdb_miniz::tdefl_output_buffer", ptr %63, i32 0, i32 1
  store i64 %62, ptr %64, align 8, !tbaa !219
  store i32 0, ptr %12, align 4
  br label %65

65:                                               ; preds = %58, %57, %33
  call void @llvm.lifetime.end.p0(i64 8, ptr %11) #11
  call void @llvm.lifetime.end.p0(i64 8, ptr %10) #11
  %66 = load i32, ptr %12, align 4
  switch i32 %66, label %82 [
    i32 0, label %67
  ]

67:                                               ; preds = %65
  br label %68

68:                                               ; preds = %67, %3
  %69 = load ptr, ptr %8, align 8, !tbaa !19
  %70 = getelementptr inbounds nuw %"struct.duckdb_miniz::tdefl_output_buffer", ptr %69, i32 0, i32 2
  %71 = load ptr, ptr %70, align 8, !tbaa !218
  %72 = load ptr, ptr %8, align 8, !tbaa !19
  %73 = getelementptr inbounds nuw %"struct.duckdb_miniz::tdefl_output_buffer", ptr %72, i32 0, i32 0
  %74 = load i64, ptr %73, align 8, !tbaa !217
  %75 = getelementptr inbounds nuw i8, ptr %71, i64 %74
  %76 = load ptr, ptr %5, align 8, !tbaa !19
  %77 = load i32, ptr %6, align 4, !tbaa !10
  %78 = sext i32 %77 to i64
  call void @llvm.memcpy.p0.p0.i64(ptr align 1 %75, ptr align 1 %76, i64 %78, i1 false)
  %79 = load i64, ptr %9, align 8, !tbaa !3
  %80 = load ptr, ptr %8, align 8, !tbaa !19
  %81 = getelementptr inbounds nuw %"struct.duckdb_miniz::tdefl_output_buffer", ptr %80, i32 0, i32 0
  store i64 %79, ptr %81, align 8, !tbaa !217
  store i32 1, ptr %4, align 4
  store i32 1, ptr %12, align 4
  br label %82

82:                                               ; preds = %68, %65
  call void @llvm.lifetime.end.p0(i64 8, ptr %9) #11
  call void @llvm.lifetime.end.p0(i64 8, ptr %8) #11
  %83 = load i32, ptr %4, align 4
  ret i32 %83
}