; Function Attrs: mustprogress nounwind uwtable
define internal noundef range(i32 0, 2) i32 @_ZN12duckdb_minizL26tdefl_output_buffer_putterEPKviPv(ptr noundef readonly captures(none) %0, i32 noundef %1, ptr noundef captures(none) %2) #14 {
  %4 = load i64, ptr %2, align 8, !tbaa !196
  %5 = sext i32 %1 to i64
  %6 = add i64 %4, %5
  %7 = getelementptr inbounds nuw i8, ptr %2, i64 8
  %8 = load i64, ptr %7, align 8, !tbaa !198
  %9 = icmp ugt i64 %6, %8
  br i1 %9, label %10, label %._crit_edge

._crit_edge:                                      ; preds = %3
  %.phi.trans.insert = getelementptr inbounds nuw i8, ptr %2, i64 16
  %.pre = load ptr, ptr %.phi.trans.insert, align 8, !tbaa !197
  br label %20

10:                                               ; preds = %3
  %11 = getelementptr inbounds nuw i8, ptr %2, i64 24
  %12 = load i32, ptr %11, align 8, !tbaa !194
  %.not = icmp eq i32 %12, 0
  br i1 %.not, label %24, label %.preheader

.preheader:                                       ; preds = %10, %.preheader
  %.026 = phi i64 [ %14, %.preheader ], [ %8, %10 ]
  %13 = shl i64 %.026, 1
  %14 = tail call i64 @llvm.umax.i64(i64 %13, i64 128)
  %15 = icmp ugt i64 %6, %14
  br i1 %15, label %.preheader, label %16, !llvm.loop !199

16:                                               ; preds = %.preheader
  %17 = getelementptr inbounds nuw i8, ptr %2, i64 16
  %18 = load ptr, ptr %17, align 8, !tbaa !197
  %19 = tail call ptr @realloc(ptr noundef %18, i64 noundef %14) #27
  %.not31 = icmp eq ptr %19, null
  br i1 %.not31, label %24, label %.critedge

.critedge:                                        ; preds = %16
  store ptr %19, ptr %17, align 8, !tbaa !197
  store i64 %14, ptr %7, align 8, !tbaa !198
  %.pre32 = load i64, ptr %2, align 8, !tbaa !196
  br label %20

20:                                               ; preds = %._crit_edge, %.critedge
  %21 = phi i64 [ %4, %._crit_edge ], [ %.pre32, %.critedge ]
  %22 = phi ptr [ %.pre, %._crit_edge ], [ %19, %.critedge ]
  %23 = getelementptr inbounds nuw i8, ptr %22, i64 %21
  tail call void @llvm.memcpy.p0.p0.i64(ptr align 1 %23, ptr align 1 %0, i64 %5, i1 false)
  store i64 %6, ptr %2, align 8, !tbaa !196
  br label %24

24:                                               ; preds = %10, %16, %20
  %.1 = phi i32 [ 1, %20 ], [ 0, %16 ], [ 0, %10 ]
  ret i32 %.1
}